; Function Attrs: mustprogress uwtable
define internal void @"_ZNSt17_Function_handlerIFN7rocksdb6StatusERKNS0_9DBOptionsERKNS0_19ColumnFamilyOptionsERKNSt7__cxx1112basic_stringIcSt11char_traitsIcESaIcEEEPKvENS0_3$_2EE9_M_invokeERKSt9_Any_dataS4_S7_SF_OSH_"(ptr dead_on_unwind noalias writable sret(%"class.rocksdb::Status") align 8 %0, ptr nonnull readnone align 8 captures(none) %1, ptr noundef nonnull align 8 dereferenceable(706) %2, ptr noundef nonnull align 8 dereferenceable(832) %3, ptr nonnull readnone align 8 captures(none) %4, ptr noundef nonnull readonly align 8 captures(none) dereferenceable(8) %5) #6 align 2 {
  %.val = load ptr, ptr %5, align 8, !tbaa !64
  %.val.val = load ptr, ptr %.val, align 8, !tbaa !614
  %7 = load ptr, ptr %.val.val, align 8, !tbaa !83, !noalias !622
  %8 = getelementptr inbounds nuw i8, ptr %7, i64 48
  %9 = load ptr, ptr %8, align 8, !noalias !622
  tail call void %9(ptr dead_on_unwind writable sret(%"class.rocksdb::Status") align 8 %0, ptr noundef nonnull align 8 dereferenceable(32) %.val.val, ptr noundef nonnull align 8 dereferenceable(706) %2, ptr noundef nonnull align 8 dereferenceable(832) %3)
  ret void
}